; Function Attrs: mustprogress nofree norecurse nosync nounwind willreturn memory(argmem: readwrite) uwtable
define internal void @ff_jref_idct1_add(ptr noundef captures(none) %0, i64 %1, ptr noundef readonly captures(none) %2) #5 {
  %4 = load i8, ptr %0, align 1, !tbaa !4
  %5 = zext i8 %4 to i32
  %6 = load i16, ptr %2, align 2, !tbaa !13
  %7 = sext i16 %6 to i32
  %8 = add nsw i32 %7, 4
  %9 = ashr i32 %8, 3
  %10 = add nsw i32 %9, %5
  %.not.i = icmp ult i32 %10, 256
  %isnotneg.i = icmp sgt i32 %10, -1
  %11 = sext i1 %isnotneg.i to i8
  %12 = trunc nuw i32 %10 to i8
  %.0.i = select i1 %.not.i, i8 %12, i8 %11
  store i8 %.0.i, ptr %0, align 1, !tbaa !4
  ret void
}